target datalayout = "e-m:e-p270:32:32-p271:32:32-p272:64:64-i64:64-i128:128-f80:128-n8:16:32:64-S128"
target triple = "x86_64-pc-linux-gnu"

%struct._zval_struct = type { %union._zend_value, %union.anon, %union.anon.2 }
%union._zend_value = type { i64 }
%union.anon = type { i32 }
%union.anon.2 = type { i32 }
%struct._zend_refcounted_h = type { i32, %union.anon.6 }
%union.anon.6 = type { i32 }
%struct._zend_object = type { %struct._zend_refcounted_h, i32, i32, ptr, ptr, ptr, [1 x %struct._zval_struct] }
%struct._pdo_dbh_t = type { ptr, ptr, ptr, ptr, i32, ptr, i64, [6 x i8], i32, i32, i32, ptr, i64, i32, [2 x ptr], ptr, ptr, %struct._zval_struct, ptr, ptr, i32 }
%struct.pdo_dbh_methods = type { ptr, ptr, ptr, ptr, ptr, ptr, ptr, ptr, ptr, ptr, ptr, ptr, ptr, ptr, ptr, ptr, ptr }
%struct._pdo_dbh_object_t = type { ptr, %struct._zend_object }

; Function Attrs: nounwind uwtable
define internal zeroext i1 @pdo_is_in_transaction(ptr noundef %0) #0 {
  %2 = alloca i1, align 1
  %3 = alloca ptr, align 8
  store ptr %0, ptr %3, align 8, !tbaa !63
  %4 = load ptr, ptr %3, align 8, !tbaa !63
  %5 = getelementptr inbounds nuw %struct._pdo_dbh_t, ptr %4, i32 0, i32 0
  %6 = load ptr, ptr %5, align 8, !tbaa !69
  %7 = getelementptr inbounds nuw %struct.pdo_dbh_methods, ptr %6, i32 0, i32 14
  %8 = load ptr, ptr %7, align 8, !tbaa !146
  %9 = icmp ne ptr %8, null
  br i1 %9, label %10, label %18

10:                                               ; preds = %1
  %11 = load ptr, ptr %3, align 8, !tbaa !63
  %12 = getelementptr inbounds nuw %struct._pdo_dbh_t, ptr %11, i32 0, i32 0
  %13 = load ptr, ptr %12, align 8, !tbaa !69
  %14 = getelementptr inbounds nuw %struct.pdo_dbh_methods, ptr %13, i32 0, i32 14
  %15 = load ptr, ptr %14, align 8, !tbaa !146
  %16 = load ptr, ptr %3, align 8, !tbaa !63
  %17 = call zeroext i1 %15(ptr noundef %16)
  store i1 %17, ptr %2, align 1
  br label %25

18:                                               ; preds = %1
  %19 = load ptr, ptr %3, align 8, !tbaa !63
  %20 = getelementptr inbounds nuw %struct._pdo_dbh_t, ptr %19, i32 0, i32 4
  %21 = load i32, ptr %20, align 8
  %22 = lshr i32 %21, 4
  %23 = and i32 %22, 1
  %24 = trunc i32 %23 to i1
  store i1 %24, ptr %2, align 1
  br label %25

25:                                               ; preds = %18, %10
  %26 = load i1, ptr %2, align 1
  ret i1 %26
}

; Function Attrs: inlinehint nounwind uwtable
define internal ptr @php_pdo_dbh_fetch_inner(ptr noundef %0) #8 {
  %2 = alloca ptr, align 8
  store ptr %0, ptr %2, align 8, !tbaa !62
  %3 = load ptr, ptr %2, align 8, !tbaa !62
  %4 = getelementptr inbounds i8, ptr %3, i64 -8
  %5 = getelementptr inbounds nuw %struct._pdo_dbh_object_t, ptr %4, i32 0, i32 0
  %6 = load ptr, ptr %5, align 8, !tbaa !91
  ret ptr %6
}

; Function Attrs: nounwind uwtable
define internal void @pdo_dbh_free_storage(ptr noundef %0) #0 {
  %2 = alloca ptr, align 8
  %3 = alloca ptr, align 8
  %4 = alloca i32, align 4
  store ptr %0, ptr %2, align 8, !tbaa !62
  call void @llvm.lifetime.start.p0(i64 8, ptr %3) #14
  %5 = load ptr, ptr %2, align 8, !tbaa !62
  %6 = call ptr @php_pdo_dbh_fetch_inner(ptr noundef %5)
  store ptr %6, ptr %3, align 8, !tbaa !63
  %7 = load ptr, ptr %3, align 8, !tbaa !63
  %8 = icmp ne ptr %7, null
  br i1 %8, label %10, label %9

9:                                                ; preds = %1
  store i32 1, ptr %4, align 4
  br label %71

10:                                               ; preds = %1
  %11 = load ptr, ptr %3, align 8, !tbaa !63
  %12 = getelementptr inbounds nuw %struct._pdo_dbh_t, ptr %11, i32 0, i32 1
  %13 = load ptr, ptr %12, align 8, !tbaa !204
  %14 = icmp ne ptr %13, null
  br i1 %14, label %15, label %43

15:                                               ; preds = %10
  %16 = load ptr, ptr %3, align 8, !tbaa !63
  %17 = getelementptr inbounds nuw %struct._pdo_dbh_t, ptr %16, i32 0, i32 0
  %18 = load ptr, ptr %17, align 8, !tbaa !69
  %19 = icmp ne ptr %18, null
  br i1 %19, label %20, label %43

20:                                               ; preds = %15
  %21 = load ptr, ptr %3, align 8, !tbaa !63
  %22 = getelementptr inbounds nuw %struct._pdo_dbh_t, ptr %21, i32 0, i32 0
  %23 = load ptr, ptr %22, align 8, !tbaa !69
  %24 = getelementptr inbounds nuw %struct.pdo_dbh_methods, ptr %23, i32 0, i32 6
  %25 = load ptr, ptr %24, align 8, !tbaa !148
  %26 = icmp ne ptr %25, null
  br i1 %26, label %27, label %43

27:                                               ; preds = %20
  %28 = load ptr, ptr %3, align 8, !tbaa !63
  %29 = call zeroext i1 @pdo_is_in_transaction(ptr noundef %28)
  br i1 %29, label %30, label %43

30:                                               ; preds = %27
  %31 = load ptr, ptr %3, align 8, !tbaa !63
  %32 = getelementptr inbounds nuw %struct._pdo_dbh_t, ptr %31, i32 0, i32 0
  %33 = load ptr, ptr %32, align 8, !tbaa !69
  %34 = getelementptr inbounds nuw %struct.pdo_dbh_methods, ptr %33, i32 0, i32 6
  %35 = load ptr, ptr %34, align 8, !tbaa !148
  %36 = load ptr, ptr %3, align 8, !tbaa !63
  %37 = call zeroext i1 %35(ptr noundef %36)
  %38 = load ptr, ptr %3, align 8, !tbaa !63
  %39 = getelementptr inbounds nuw %struct._pdo_dbh_t, ptr %38, i32 0, i32 4
  %40 = load i32, ptr %39, align 8
  %41 = and i32 %40, -17
  %42 = or i32 %41, 0
  store i32 %42, ptr %39, align 8
  br label %43

43:                                               ; preds = %30, %27, %20, %15, %10
  %44 = load ptr, ptr %3, align 8, !tbaa !63
  %45 = getelementptr inbounds nuw %struct._pdo_dbh_t, ptr %44, i32 0, i32 4
  %46 = load i32, ptr %45, align 8
  %47 = and i32 %46, 1
  %48 = icmp ne i32 %47, 0
  br i1 %48, label %49, label %68

49:                                               ; preds = %43
  %50 = load ptr, ptr %3, align 8, !tbaa !63
  %51 = getelementptr inbounds nuw %struct._pdo_dbh_t, ptr %50, i32 0, i32 0
  %52 = load ptr, ptr %51, align 8, !tbaa !69
  %53 = icmp ne ptr %52, null
  br i1 %53, label %54, label %68

54:                                               ; preds = %49
  %55 = load ptr, ptr %3, align 8, !tbaa !63
  %56 = getelementptr inbounds nuw %struct._pdo_dbh_t, ptr %55, i32 0, i32 0
  %57 = load ptr, ptr %56, align 8, !tbaa !69
  %58 = getelementptr inbounds nuw %struct.pdo_dbh_methods, ptr %57, i32 0, i32 13
  %59 = load ptr, ptr %58, align 8, !tbaa !205
  %60 = icmp ne ptr %59, null
  br i1 %60, label %61, label %68

61:                                               ; preds = %54
  %62 = load ptr, ptr %3, align 8, !tbaa !63
  %63 = getelementptr inbounds nuw %struct._pdo_dbh_t, ptr %62, i32 0, i32 0
  %64 = load ptr, ptr %63, align 8, !tbaa !69
  %65 = getelementptr inbounds nuw %struct.pdo_dbh_methods, ptr %64, i32 0, i32 13
  %66 = load ptr, ptr %65, align 8, !tbaa !205
  %67 = load ptr, ptr %3, align 8, !tbaa !63
  call void %66(ptr noundef %67)
  br label %68

68:                                               ; preds = %61, %54, %49, %43
  %69 = load ptr, ptr %2, align 8, !tbaa !62
  call void @zend_object_std_dtor(ptr noundef %69)
  %70 = load ptr, ptr %3, align 8, !tbaa !63
  call void @dbh_free(ptr noundef %70, i1 noundef zeroext false)
  store i32 0, ptr %4, align 4
  br label %71

71:                                               ; preds = %68, %9
  call void @llvm.lifetime.end.p0(i64 8, ptr %3) #14
  %72 = load i32, ptr %4, align 4
  switch i32 %72, label %74 [
    i32 0, label %73
    i32 1, label %73
  ]

73:                                               ; preds = %71, %71
  ret void

74:                                               ; preds = %71
  unreachable
}