; Function Attrs: nounwind uwtable
define internal void @pdo_dbh_free_storage(ptr noundef %0) #0 {
  %2 = getelementptr i8, ptr %0, i64 -8
  %.val = load ptr, ptr %2, align 8, !tbaa !90
  %.not = icmp eq ptr %.val, null
  br i1 %.not, label %36, label %3

3:                                                ; preds = %1
  %4 = getelementptr inbounds nuw i8, ptr %.val, i64 8
  %5 = load ptr, ptr %4, align 8, !tbaa !193
  %.not19 = icmp eq ptr %5, null
  br i1 %.not19, label %25, label %6

6:                                                ; preds = %3
  %7 = load ptr, ptr %.val, align 8, !tbaa !59
  %.not20 = icmp eq ptr %7, null
  br i1 %.not20, label %25, label %8

8:                                                ; preds = %6
  %9 = getelementptr inbounds nuw i8, ptr %7, i64 48
  %10 = load ptr, ptr %9, align 8, !tbaa !130
  %.not21 = icmp eq ptr %10, null
  br i1 %.not21, label %25, label %11

11:                                               ; preds = %8
  %12 = getelementptr inbounds nuw i8, ptr %7, i64 112
  %13 = load ptr, ptr %12, align 8, !tbaa !127
  %.not.i = icmp eq ptr %13, null
  br i1 %.not.i, label %pdo_is_in_transaction.exit, label %14

14:                                               ; preds = %11
  %15 = tail call zeroext i1 %13(ptr noundef nonnull %.val) #13
  br i1 %15, label %._crit_edge, label %25

._crit_edge:                                      ; preds = %14
  %.pre = load ptr, ptr %.val, align 8, !tbaa !59
  %.phi.trans.insert = getelementptr inbounds nuw i8, ptr %.pre, i64 48
  %.pre26 = load ptr, ptr %.phi.trans.insert, align 8, !tbaa !130
  br label %19

pdo_is_in_transaction.exit:                       ; preds = %11
  %16 = getelementptr inbounds nuw i8, ptr %.val, i64 32
  %17 = load i32, ptr %16, align 8
  %18 = and i32 %17, 16
  %.not25 = icmp eq i32 %18, 0
  br i1 %.not25, label %25, label %19

19:                                               ; preds = %._crit_edge, %pdo_is_in_transaction.exit
  %20 = phi ptr [ %.pre26, %._crit_edge ], [ %10, %pdo_is_in_transaction.exit ]
  %21 = tail call zeroext i1 %20(ptr noundef nonnull %.val) #13
  %22 = getelementptr inbounds nuw i8, ptr %.val, i64 32
  %23 = load i32, ptr %22, align 8
  %24 = and i32 %23, -17
  store i32 %24, ptr %22, align 8
  br label %25

25:                                               ; preds = %14, %19, %pdo_is_in_transaction.exit, %8, %6, %3
  %26 = getelementptr inbounds nuw i8, ptr %.val, i64 32
  %27 = load i32, ptr %26, align 8
  %28 = and i32 %27, 1
  %.not22 = icmp eq i32 %28, 0
  br i1 %.not22, label %35, label %29

29:                                               ; preds = %25
  %30 = load ptr, ptr %.val, align 8, !tbaa !59
  %.not23 = icmp eq ptr %30, null
  br i1 %.not23, label %35, label %31

31:                                               ; preds = %29
  %32 = getelementptr inbounds nuw i8, ptr %30, i64 104
  %33 = load ptr, ptr %32, align 8, !tbaa !194
  %.not24 = icmp eq ptr %33, null
  br i1 %.not24, label %35, label %34

34:                                               ; preds = %31
  tail call void %33(ptr noundef nonnull %.val) #13
  br label %35

35:                                               ; preds = %34, %31, %29, %25
  tail call void @zend_object_std_dtor(ptr noundef nonnull %0) #13
  tail call fastcc void @dbh_free(ptr noundef %.val, i1 noundef zeroext false)
  br label %36

36:                                               ; preds = %1, %35
  ret void
}